target datalayout = "e-m:e-p270:32:32-p271:32:32-p272:64:64-i64:64-i128:128-f80:128-n8:16:32:64-S128"
target triple = "x86_64-pc-linux-gnu"

%struct.H5O_btreek_t = type { [2 x i32], i32 }

@H5O_init_g = external global i8, align 1
@H5_libterm_g = external global i8, align 1

; Function Attrs: nounwind uwtable
define internal i32 @H5O__btreek_encode(ptr noundef %0, i1 noundef zeroext %1, i64 noundef %2, ptr noundef %3, ptr noundef %4) #0 {
  %6 = alloca ptr, align 8
  %7 = alloca i8, align 1
  %8 = alloca i64, align 8
  %9 = alloca ptr, align 8
  %10 = alloca ptr, align 8
  %11 = alloca ptr, align 8
  store ptr %0, ptr %6, align 8, !tbaa !3
  %12 = zext i1 %1 to i8
  store i8 %12, ptr %7, align 1, !tbaa !21
  store i64 %2, ptr %8, align 8, !tbaa !14
  store ptr %3, ptr %9, align 8, !tbaa !16
  store ptr %4, ptr %10, align 8, !tbaa !20
  call void @llvm.lifetime.start.p0(i64 8, ptr %11) #8
  %13 = load ptr, ptr %10, align 8, !tbaa !20
  store ptr %13, ptr %11, align 8, !tbaa !18
  %14 = load i8, ptr @H5O_init_g, align 1, !tbaa !21, !range !23, !noundef !24
  %15 = trunc i8 %14 to i1
  br i1 %15, label %20, label %16

16:                                               ; preds = %5
  %17 = load i8, ptr @H5_libterm_g, align 1, !tbaa !21, !range !23, !noundef !24
  %18 = trunc i8 %17 to i1
  %19 = xor i1 %18, true
  br label %20

20:                                               ; preds = %16, %5
  %21 = phi i1 [ true, %5 ], [ %19, %16 ]
  %22 = xor i1 %21, true
  %23 = xor i1 %22, true
  %24 = zext i1 %23 to i32
  %25 = sext i32 %24 to i64
  %26 = call i64 @llvm.expect.i64(i64 %25, i64 1)
  %27 = icmp ne i64 %26, 0
  br i1 %27, label %28, label %95

28:                                               ; preds = %20
  %29 = load ptr, ptr %9, align 8, !tbaa !16
  %30 = getelementptr inbounds nuw i8, ptr %29, i32 1
  store ptr %30, ptr %9, align 8, !tbaa !16
  store i8 0, ptr %29, align 1, !tbaa !25
  br label %31

31:                                               ; preds = %28
  %32 = load ptr, ptr %11, align 8, !tbaa !18
  %33 = getelementptr inbounds nuw %struct.H5O_btreek_t, ptr %32, i32 0, i32 0
  %34 = getelementptr inbounds [2 x i32], ptr %33, i64 0, i64 1
  %35 = load i32, ptr %34, align 4, !tbaa !10
  %36 = and i32 %35, 255
  %37 = trunc i32 %36 to i8
  %38 = load ptr, ptr %9, align 8, !tbaa !16
  store i8 %37, ptr %38, align 1, !tbaa !25
  %39 = load ptr, ptr %9, align 8, !tbaa !16
  %40 = getelementptr inbounds nuw i8, ptr %39, i32 1
  store ptr %40, ptr %9, align 8, !tbaa !16
  %41 = load ptr, ptr %11, align 8, !tbaa !18
  %42 = getelementptr inbounds nuw %struct.H5O_btreek_t, ptr %41, i32 0, i32 0
  %43 = getelementptr inbounds [2 x i32], ptr %42, i64 0, i64 1
  %44 = load i32, ptr %43, align 4, !tbaa !10
  %45 = lshr i32 %44, 8
  %46 = and i32 %45, 255
  %47 = trunc i32 %46 to i8
  %48 = load ptr, ptr %9, align 8, !tbaa !16
  store i8 %47, ptr %48, align 1, !tbaa !25
  %49 = load ptr, ptr %9, align 8, !tbaa !16
  %50 = getelementptr inbounds nuw i8, ptr %49, i32 1
  store ptr %50, ptr %9, align 8, !tbaa !16
  br label %51

51:                                               ; preds = %31
  br label %52

52:                                               ; preds = %51
  br label %53

53:                                               ; preds = %52
  %54 = load ptr, ptr %11, align 8, !tbaa !18
  %55 = getelementptr inbounds nuw %struct.H5O_btreek_t, ptr %54, i32 0, i32 0
  %56 = getelementptr inbounds [2 x i32], ptr %55, i64 0, i64 0
  %57 = load i32, ptr %56, align 4, !tbaa !10
  %58 = and i32 %57, 255
  %59 = trunc i32 %58 to i8
  %60 = load ptr, ptr %9, align 8, !tbaa !16
  store i8 %59, ptr %60, align 1, !tbaa !25
  %61 = load ptr, ptr %9, align 8, !tbaa !16
  %62 = getelementptr inbounds nuw i8, ptr %61, i32 1
  store ptr %62, ptr %9, align 8, !tbaa !16
  %63 = load ptr, ptr %11, align 8, !tbaa !18
  %64 = getelementptr inbounds nuw %struct.H5O_btreek_t, ptr %63, i32 0, i32 0
  %65 = getelementptr inbounds [2 x i32], ptr %64, i64 0, i64 0
  %66 = load i32, ptr %65, align 4, !tbaa !10
  %67 = lshr i32 %66, 8
  %68 = and i32 %67, 255
  %69 = trunc i32 %68 to i8
  %70 = load ptr, ptr %9, align 8, !tbaa !16
  store i8 %69, ptr %70, align 1, !tbaa !25
  %71 = load ptr, ptr %9, align 8, !tbaa !16
  %72 = getelementptr inbounds nuw i8, ptr %71, i32 1
  store ptr %72, ptr %9, align 8, !tbaa !16
  br label %73

73:                                               ; preds = %53
  br label %74

74:                                               ; preds = %73
  br label %75

75:                                               ; preds = %74
  %76 = load ptr, ptr %11, align 8, !tbaa !18
  %77 = getelementptr inbounds nuw %struct.H5O_btreek_t, ptr %76, i32 0, i32 1
  %78 = load i32, ptr %77, align 4, !tbaa !26
  %79 = and i32 %78, 255
  %80 = trunc i32 %79 to i8
  %81 = load ptr, ptr %9, align 8, !tbaa !16
  store i8 %80, ptr %81, align 1, !tbaa !25
  %82 = load ptr, ptr %9, align 8, !tbaa !16
  %83 = getelementptr inbounds nuw i8, ptr %82, i32 1
  store ptr %83, ptr %9, align 8, !tbaa !16
  %84 = load ptr, ptr %11, align 8, !tbaa !18
  %85 = getelementptr inbounds nuw %struct.H5O_btreek_t, ptr %84, i32 0, i32 1
  %86 = load i32, ptr %85, align 4, !tbaa !26
  %87 = lshr i32 %86, 8
  %88 = and i32 %87, 255
  %89 = trunc i32 %88 to i8
  %90 = load ptr, ptr %9, align 8, !tbaa !16
  store i8 %89, ptr %90, align 1, !tbaa !25
  %91 = load ptr, ptr %9, align 8, !tbaa !16
  %92 = getelementptr inbounds nuw i8, ptr %91, i32 1
  store ptr %92, ptr %9, align 8, !tbaa !16
  br label %93

93:                                               ; preds = %75
  br label %94

94:                                               ; preds = %93
  br label %95

95:                                               ; preds = %94, %20
  call void @llvm.lifetime.end.p0(i64 8, ptr %11) #8
  ret i32 0
}