; Function Attrs: mustprogress nofree norecurse nosync nounwind willreturn memory(read, argmem: readwrite, inaccessiblemem: none) uwtable
define internal noundef i32 @H5O__btreek_encode(ptr readnone captures(none) %0, i1 zeroext %1, i64 %2, ptr noundef writeonly captures(none) %3, ptr noundef readonly captures(none) %4) #1 {
  %6 = load i8, ptr @H5O_init_g, align 1, !tbaa !3, !range !7, !noundef !8
  %7 = trunc nuw i8 %6 to i1
  %8 = load i8, ptr @H5_libterm_g, align 1, !range !7
  %9 = trunc nuw i8 %8 to i1
  %10 = xor i1 %9, true
  %11 = select i1 %7, i1 true, i1 %10
  br i1 %11, label %12, label %36, !prof !9

12:                                               ; preds = %5
  %13 = getelementptr inbounds nuw i8, ptr %3, i64 1
  store i8 0, ptr %3, align 1, !tbaa !12
  %14 = getelementptr inbounds nuw i8, ptr %4, i64 4
  %15 = load i32, ptr %14, align 4, !tbaa !13
  %16 = trunc i32 %15 to i8
  store i8 %16, ptr %13, align 1, !tbaa !12
  %17 = getelementptr inbounds nuw i8, ptr %3, i64 2
  %18 = load i32, ptr %14, align 4, !tbaa !13
  %19 = lshr i32 %18, 8
  %20 = trunc i32 %19 to i8
  store i8 %20, ptr %17, align 1, !tbaa !12
  %21 = getelementptr inbounds nuw i8, ptr %3, i64 3
  %22 = load i32, ptr %4, align 4, !tbaa !13
  %23 = trunc i32 %22 to i8
  store i8 %23, ptr %21, align 1, !tbaa !12
  %24 = getelementptr inbounds nuw i8, ptr %3, i64 4
  %25 = load i32, ptr %4, align 4, !tbaa !13
  %26 = lshr i32 %25, 8
  %27 = trunc i32 %26 to i8
  store i8 %27, ptr %24, align 1, !tbaa !12
  %28 = getelementptr inbounds nuw i8, ptr %3, i64 5
  %29 = getelementptr inbounds nuw i8, ptr %4, i64 8
  %30 = load i32, ptr %29, align 4, !tbaa !15
  %31 = trunc i32 %30 to i8
  store i8 %31, ptr %28, align 1, !tbaa !12
  %32 = getelementptr inbounds nuw i8, ptr %3, i64 6
  %33 = load i32, ptr %29, align 4, !tbaa !15
  %34 = lshr i32 %33, 8
  %35 = trunc i32 %34 to i8
  store i8 %35, ptr %32, align 1, !tbaa !12
  br label %36

36:                                               ; preds = %12, %5
  ret i32 0
}